target datalayout = "e-m:e-p270:32:32-p271:32:32-p272:64:64-i64:64-i128:128-f80:128-n8:16:32:64-S128"
target triple = "x86_64-pc-linux-gnu"

%struct.RelFileLocator = type { i32, i32, i32 }
%struct.ItemPointerData = type { %struct.BlockIdData, i16 }
%struct.BlockIdData = type { i16, i16 }
%struct.BTScanOpaqueData = type { i8, i32, ptr, i32, i8, i8, i8, ptr, ptr, ptr, ptr, i32, ptr, ptr, i32, %struct.BTScanPosData, %struct.BTScanPosData }
%struct.BTScanPosData = type { i32, i32, i32, i32, i64, i32, i32, i8, i8, i32, i32, i32, [1358 x %struct.BTScanPosItem] }
%struct.BTScanPosItem = type { %struct.ItemPointerData, i16, i16 }
%struct.IndexScanDescData = type { ptr, ptr, ptr, i32, i32, ptr, ptr, i8, i8, i8, i8, i8, ptr, ptr, ptr, ptr, ptr, %struct.ItemPointerData, i8, ptr, i8, ptr, ptr, i8, ptr }
%struct.BTParallelScanDescData = type { i32, i32, i32, i8, %struct.ConditionVariable, [0 x i32] }
%struct.ConditionVariable = type { i8, %struct.proclist_head }
%struct.proclist_head = type { i32, i32 }
%struct.ParallelIndexScanDescData = type { %struct.RelFileLocator, %struct.RelFileLocator, i64, [0 x i8] }
%struct.BTArrayKeyInfo = type { i32, i32, i32, ptr }

@.str = private unnamed_addr constant [9 x i8] c"nbtree.c\00", align 1
@__func__._bt_parallel_primscan_schedule = private unnamed_addr constant [31 x i8] c"_bt_parallel_primscan_schedule\00", align 1

; Function Attrs: inlinehint nounwind uwtable
define internal i32 @tas(ptr noundef %0) #2 {
  %2 = alloca ptr, align 8
  %3 = alloca i8, align 1
  store ptr %0, ptr %2, align 8
  call void @llvm.lifetime.start.p0(i64 1, ptr %3) #8
  store i8 1, ptr %3, align 1
  %4 = load i8, ptr %3, align 1
  %5 = load ptr, ptr %2, align 8
  %6 = call i8 asm sideeffect "\09lock\09\09\09\0A\09xchgb\09$0,$1\09\0A", "=q,=*m,0,*m,~{memory},~{cc},~{dirflag},~{fpsr},~{flags}"(ptr elementtype(i8) %5, i8 %4, ptr elementtype(i8) %5) #8, !srcloc !11
  store i8 %6, ptr %3, align 1
  %7 = load i8, ptr %3, align 1
  %8 = zext i8 %7 to i32
  call void @llvm.lifetime.end.p0(i64 1, ptr %3) #8
  ret i32 %8
}

; Function Attrs: nounwind uwtable
define dso_local void @_bt_parallel_primscan_schedule(ptr noundef %0, i32 noundef %1) #0 {
  %3 = alloca ptr, align 8
  %4 = alloca i32, align 4
  %5 = alloca ptr, align 8
  %6 = alloca ptr, align 8
  %7 = alloca ptr, align 8
  %8 = alloca i32, align 4
  %9 = alloca ptr, align 8
  store ptr %0, ptr %3, align 8
  store i32 %1, ptr %4, align 4
  call void @llvm.lifetime.start.p0(i64 8, ptr %5) #8
  %10 = load ptr, ptr %3, align 8
  %11 = getelementptr inbounds nuw %struct.IndexScanDescData, ptr %10, i32 0, i32 12
  %12 = load ptr, ptr %11, align 8
  store ptr %12, ptr %5, align 8
  call void @llvm.lifetime.start.p0(i64 8, ptr %6) #8
  %13 = load ptr, ptr %3, align 8
  %14 = getelementptr inbounds nuw %struct.IndexScanDescData, ptr %13, i32 0, i32 24
  %15 = load ptr, ptr %14, align 8
  store ptr %15, ptr %6, align 8
  call void @llvm.lifetime.start.p0(i64 8, ptr %7) #8
  %16 = load ptr, ptr %6, align 8
  %17 = load ptr, ptr %6, align 8
  %18 = getelementptr inbounds nuw %struct.ParallelIndexScanDescData, ptr %17, i32 0, i32 2
  %19 = load i64, ptr %18, align 8
  %20 = getelementptr inbounds nuw i8, ptr %16, i64 %19
  store ptr %20, ptr %7, align 8
  %21 = load ptr, ptr %7, align 8
  %22 = getelementptr inbounds nuw %struct.BTParallelScanDescData, ptr %21, i32 0, i32 3
  %23 = call i32 @tas(ptr noundef %22)
  %24 = icmp ne i32 %23, 0
  br i1 %24, label %25, label %29

25:                                               ; preds = %2
  %26 = load ptr, ptr %7, align 8
  %27 = getelementptr inbounds nuw %struct.BTParallelScanDescData, ptr %26, i32 0, i32 3
  %28 = call i32 @s_lock(ptr noundef %27, ptr noundef @.str, i32 noundef 838, ptr noundef @__func__._bt_parallel_primscan_schedule)
  br label %30

29:                                               ; preds = %2
  br label %30

30:                                               ; preds = %29, %25
  %31 = load ptr, ptr %7, align 8
  %32 = getelementptr inbounds nuw %struct.BTParallelScanDescData, ptr %31, i32 0, i32 1
  %33 = load i32, ptr %32, align 4
  %34 = load i32, ptr %4, align 4
  %35 = icmp eq i32 %33, %34
  br i1 %35, label %36, label %74

36:                                               ; preds = %30
  %37 = load ptr, ptr %7, align 8
  %38 = getelementptr inbounds nuw %struct.BTParallelScanDescData, ptr %37, i32 0, i32 2
  %39 = load i32, ptr %38, align 4
  %40 = icmp eq i32 %39, 3
  br i1 %40, label %41, label %74

41:                                               ; preds = %36
  %42 = load ptr, ptr %7, align 8
  %43 = getelementptr inbounds nuw %struct.BTParallelScanDescData, ptr %42, i32 0, i32 0
  store i32 -1, ptr %43, align 4
  %44 = load ptr, ptr %7, align 8
  %45 = getelementptr inbounds nuw %struct.BTParallelScanDescData, ptr %44, i32 0, i32 1
  store i32 -1, ptr %45, align 4
  %46 = load ptr, ptr %7, align 8
  %47 = getelementptr inbounds nuw %struct.BTParallelScanDescData, ptr %46, i32 0, i32 2
  store i32 1, ptr %47, align 4
  call void @llvm.lifetime.start.p0(i64 4, ptr %8) #8
  store i32 0, ptr %8, align 4
  br label %48

48:                                               ; preds = %70, %41
  %49 = load i32, ptr %8, align 4
  %50 = load ptr, ptr %5, align 8
  %51 = getelementptr inbounds nuw %struct.BTScanOpaqueData, ptr %50, i32 0, i32 3
  %52 = load i32, ptr %51, align 8
  %53 = icmp slt i32 %49, %52
  br i1 %53, label %55, label %54

54:                                               ; preds = %48
  call void @llvm.lifetime.end.p0(i64 4, ptr %8) #8
  br label %73

55:                                               ; preds = %48
  call void @llvm.lifetime.start.p0(i64 8, ptr %9) #8
  %56 = load ptr, ptr %5, align 8
  %57 = getelementptr inbounds nuw %struct.BTScanOpaqueData, ptr %56, i32 0, i32 7
  %58 = load ptr, ptr %57, align 8
  %59 = load i32, ptr %8, align 4
  %60 = sext i32 %59 to i64
  %61 = getelementptr inbounds %struct.BTArrayKeyInfo, ptr %58, i64 %60
  store ptr %61, ptr %9, align 8
  %62 = load ptr, ptr %9, align 8
  %63 = getelementptr inbounds nuw %struct.BTArrayKeyInfo, ptr %62, i32 0, i32 1
  %64 = load i32, ptr %63, align 4
  %65 = load ptr, ptr %7, align 8
  %66 = getelementptr inbounds nuw %struct.BTParallelScanDescData, ptr %65, i32 0, i32 5
  %67 = load i32, ptr %8, align 4
  %68 = sext i32 %67 to i64
  %69 = getelementptr inbounds [0 x i32], ptr %66, i64 0, i64 %68
  store i32 %64, ptr %69, align 4
  call void @llvm.lifetime.end.p0(i64 8, ptr %9) #8
  br label %70

70:                                               ; preds = %55
  %71 = load i32, ptr %8, align 4
  %72 = add i32 %71, 1
  store i32 %72, ptr %8, align 4
  br label %48, !llvm.loop !16

73:                                               ; preds = %54
  br label %74

74:                                               ; preds = %73, %36, %30
  br label %75

75:                                               ; preds = %74
  call void asm sideeffect "", "~{memory},~{dirflag},~{fpsr},~{flags}"() #8, !srcloc !17
  %76 = load ptr, ptr %7, align 8
  %77 = getelementptr inbounds nuw %struct.BTParallelScanDescData, ptr %76, i32 0, i32 3
  store i8 0, ptr %77, align 4
  br label %78

78:                                               ; preds = %75
  br label %79

79:                                               ; preds = %78
  call void @llvm.lifetime.end.p0(i64 8, ptr %7) #8
  call void @llvm.lifetime.end.p0(i64 8, ptr %6) #8
  call void @llvm.lifetime.end.p0(i64 8, ptr %5) #8
  ret void
}