; Function Attrs: nounwind uwtable
define dso_local void @_bt_parallel_primscan_schedule(ptr noundef readonly captures(none) %0, i32 noundef %1) local_unnamed_addr #0 {
  %3 = getelementptr inbounds nuw i8, ptr %0, i64 56
  %4 = load ptr, ptr %3, align 8
  %5 = getelementptr inbounds nuw i8, ptr %0, i64 144
  %6 = load ptr, ptr %5, align 8
  %7 = getelementptr inbounds nuw i8, ptr %6, i64 24
  %8 = load i64, ptr %7, align 8
  %9 = getelementptr inbounds nuw i8, ptr %6, i64 %8
  %10 = getelementptr inbounds nuw i8, ptr %9, i64 12
  %11 = tail call i8 asm sideeffect "\09lock\09\09\09\0A\09xchgb\09$0,$1\09\0A", "=q,=*m,0,*m,~{memory},~{cc},~{dirflag},~{fpsr},~{flags}"(ptr nonnull elementtype(i8) %10, i8 1, ptr nonnull elementtype(i8) %10) #8, !srcloc !10
  %.not = icmp eq i8 %11, 0
  br i1 %.not, label %14, label %12

12:                                               ; preds = %2
  %13 = tail call i32 @s_lock(ptr noundef nonnull %10, ptr noundef nonnull @.str, i32 noundef 838, ptr noundef nonnull @__func__._bt_parallel_primscan_schedule) #8
  br label %14

14:                                               ; preds = %2, %12
  %15 = getelementptr inbounds nuw i8, ptr %9, i64 4
  %16 = load i32, ptr %15, align 4
  %17 = icmp eq i32 %16, %1
  br i1 %17, label %18, label %.loopexit

18:                                               ; preds = %14
  %19 = getelementptr inbounds nuw i8, ptr %9, i64 8
  %20 = load i32, ptr %19, align 4
  %21 = icmp eq i32 %20, 3
  br i1 %21, label %22, label %.loopexit

22:                                               ; preds = %18
  store i32 -1, ptr %9, align 4
  store i32 -1, ptr %15, align 4
  store i32 1, ptr %19, align 4
  %23 = getelementptr inbounds nuw i8, ptr %4, i64 16
  %24 = load i32, ptr %23, align 8
  %25 = icmp sgt i32 %24, 0
  br i1 %25, label %.lr.ph, label %.loopexit

.lr.ph:                                           ; preds = %22
  %26 = getelementptr inbounds nuw i8, ptr %4, i64 24
  %27 = getelementptr inbounds nuw i8, ptr %9, i64 28
  br label %28

28:                                               ; preds = %.lr.ph, %28
  %indvars.iv = phi i64 [ 0, %.lr.ph ], [ %indvars.iv.next, %28 ]
  %29 = load ptr, ptr %26, align 8
  %30 = getelementptr inbounds nuw %struct.BTArrayKeyInfo, ptr %29, i64 %indvars.iv, i32 1
  %31 = load i32, ptr %30, align 4
  %32 = getelementptr inbounds nuw [0 x i32], ptr %27, i64 0, i64 %indvars.iv
  store i32 %31, ptr %32, align 4
  %indvars.iv.next = add nuw nsw i64 %indvars.iv, 1
  %33 = load i32, ptr %23, align 8
  %34 = sext i32 %33 to i64
  %35 = icmp slt i64 %indvars.iv.next, %34
  br i1 %35, label %28, label %.loopexit, !llvm.loop !16

.loopexit:                                        ; preds = %28, %22, %14, %18
  tail call void asm sideeffect "", "~{memory},~{dirflag},~{fpsr},~{flags}"() #8, !srcloc !17
  store i8 0, ptr %10, align 4
  ret void
}